; Function Attrs: mustprogress uwtable
define void @_ZN3gmx25CommandLineProgramContextC2Ev(ptr nocapture noundef nonnull writeonly align 8 dereferenceable(16) %0) unnamed_addr #1 align 2 personality ptr @__gxx_personality_v0 {
  store ptr getelementptr inbounds inrange(-16, 56) ({ [9 x ptr] }, ptr @_ZTVN3gmx25CommandLineProgramContextE, i64 0, i32 0, i64 2), ptr %0, align 8
  %2 = tail call noalias noundef nonnull dereferenceable(272) ptr @_Znwm(i64 noundef 272) #19
  invoke void @_ZN3gmx25CommandLineProgramContext4ImplC1Ev(ptr noundef nonnull align 8 dereferenceable(272) %2)
          to label %3 unwind label %5

3:                                                ; preds = %1
  %4 = getelementptr inbounds i8, ptr %0, i64 8
  store ptr %2, ptr %4, align 8
  ret void

5:                                                ; preds = %1
  %6 = landingpad { ptr, i32 }
          cleanup
  tail call void @_ZdlPv(ptr noundef nonnull %2) #17
  resume { ptr, i32 } %6
}